; Function Attrs: mustprogress nounwind uwtable
define hidden noundef ptr @_ZN15G1CollectedHeap10new_regionEm16G1HeapRegionTypebj(ptr noundef nonnull align 8 dereferenceable(1488) %0, i64 noundef %1, i32 %2, i1 noundef zeroext %3, i32 noundef %4) local_unnamed_addr #0 align 2 {
  %6 = getelementptr inbounds i8, ptr %0, i64 392
  %7 = tail call noundef ptr @_ZN19G1HeapRegionManager20allocate_free_regionE16G1HeapRegionTypej(ptr noundef nonnull align 8 dereferenceable(232) %6, i32 %2, i32 noundef %4) #23
  %8 = icmp eq ptr %7, null
  %brmerge.not = and i1 %8, %3
  br i1 %brmerge.not, label %9, label %_ZN15G1CollectedHeap20expand_single_regionEj.exit.thread

9:                                                ; preds = %5
  %10 = load volatile ptr, ptr getelementptr inbounds (i8, ptr @_ZN16LogTagSetMappingILN6LogTag4typeE49ELS1_40ELS1_52ELS1_0ELS1_0ELS1_0EE7_tagsetE, i64 56), align 8
  %.not = icmp eq ptr %10, null
  br i1 %.not, label %13, label %11

11:                                               ; preds = %9
  %12 = shl i64 %1, 3
  tail call void (ptr, ...) @_ZN7LogImplILN6LogTag4typeE49ELS1_40ELS1_52ELS1_0ELS1_0ELS1_0EE5writeILN8LogLevel4typeE2EEEvPKcz(ptr noundef nonnull @.str, i64 noundef %12)
  br label %13

13:                                               ; preds = %9, %11
  %14 = tail call noundef i32 @_ZN19G1HeapRegionManager24expand_on_preferred_nodeEj(ptr noundef nonnull align 8 dereferenceable(232) %6, i32 noundef %4) #23
  %.not12 = icmp eq i32 %14, 0
  br i1 %.not12, label %15, label %18

15:                                               ; preds = %13
  %16 = load volatile ptr, ptr getelementptr inbounds (i8, ptr @_ZN16LogTagSetMappingILN6LogTag4typeE49ELS1_40ELS1_52ELS1_0ELS1_0ELS1_0EE7_tagsetE, i64 56), align 8
  %.not.i = icmp eq ptr %16, null
  br i1 %.not.i, label %_ZN15G1CollectedHeap20expand_single_regionEj.exit.thread, label %17

17:                                               ; preds = %15
  tail call void (ptr, ...) @_ZN7LogImplILN6LogTag4typeE49ELS1_40ELS1_52ELS1_0ELS1_0ELS1_0EE5writeILN8LogLevel4typeE2EEEvPKcz(ptr noundef nonnull @.str.21)
  br label %_ZN15G1CollectedHeap20expand_single_regionEj.exit.thread

18:                                               ; preds = %13
  %19 = getelementptr inbounds i8, ptr %0, i64 1064
  %20 = load ptr, ptr %19, align 8
  %21 = getelementptr inbounds i8, ptr %0, i64 408
  %22 = tail call noundef i32 @_ZNK20G1CommittedRegionMap10num_activeEv(ptr noundef nonnull align 8 dereferenceable(64) %21) #23
  tail call void @_ZN8G1Policy20record_new_heap_sizeEj(ptr noundef nonnull align 8 dereferenceable(552) %20, i32 noundef %22) #23
  %23 = tail call noundef ptr @_ZN19G1HeapRegionManager20allocate_free_regionE16G1HeapRegionTypej(ptr noundef nonnull align 8 dereferenceable(232) %6, i32 %2, i32 noundef %4) #23
  br label %_ZN15G1CollectedHeap20expand_single_regionEj.exit.thread

_ZN15G1CollectedHeap20expand_single_regionEj.exit.thread: ; preds = %17, %15, %5, %18
  %.0 = phi ptr [ %23, %18 ], [ %7, %5 ], [ null, %15 ], [ null, %17 ]
  ret ptr %.0
}